(lp0
((I1
I248
I28
F0.5
F0.49538296211705835
I127781
F127781.0
tp1
F0.4519529507516767
tp2
a((I2
I129
I3
F4.75
F0.48580077000652744
I60213
F60213.0
tp3
F0.5842592131267335
tp4
a((I3
I66
I29
F0.5
F0.4541563370864
I30152
F30152.0
tp5
F0.6513995754842133
tp6
a((I4
I35
I50
F0.5
F0.3912347577304296
I18111
F18111.0
tp7
F0.7332008171829275
tp8
a((I5
I20
I2
F1.550000011920929
F0.3547044784043323
I15807
F15807.0
tp9
F0.7695324856076422
tp10
a((I6
I13
I2
F0.05000000074505806
F0.2527127136328218
I7178
F7178.0
tp11
F0.8516299804959598
tp12
a((I7
I10
I8
F0.5
F0.4440999146929425
I646
F646.0
tp13
F0.6671826625386997
tp14
a((I8
I9
I2
F-0.5499999970197678
F0.400885265142529
I566
F566.0
tp15
F0.7226148409893993
tp16
a((I-1
I-1
I-2
F-2.0
F0.23111111111111116
I15
F15.0
tp17
F0.13333333333333333
tp18
a((I-1
I-1
I-2
F-2.0
F0.38608568482976013
I551
F551.0
tp19
F0.7386569872958257
tp20
a((I11
I12
I3
F4.049999952316284
F0.39875000000000005
I80
F80.0
tp21
F0.275
tp22
a((I-1
I-1
I-2
F-2.0
F0.3526530612244898
I70
F70.0
tp23
F0.22857142857142856
tp24
a((I-1
I-1
I-2
F-2.0
F0.48
I10
F10.0
tp25
F0.6
tp26
a((I14
I17
I4
F2.950000047683716
F0.22639029148130885
I6532
F6532.0
tp27
F0.8698714023270055
tp28
a((I15
I16
I24
F0.5
F0.2993753453004744
I3361
F3361.0
tp29
F0.8167212139244272
tp30
a((I-1
I-1
I-2
F-2.0
F0.2862739198739471
I3212
F3212.0
tp31
F0.8268991282689913
tp32
a((I-1
I-1
I-2
F-2.0
F0.48105941173821
I149
F149.0
tp33
F0.5973154362416108
tp34
a((I18
I19
I36
F0.5
F0.13669647500243898
I3171
F3171.0
tp35
F0.9262062440870388
tp36
a((I-1
I-1
I-2
F-2.0
F0.11767512334909336
I2915
F2915.0
tp37
F0.937221269296741
tp38
a((I-1
I-1
I-2
F-2.0
F0.319061279296875
I256
F256.0
tp39
F0.80078125
tp40
a((I21
I28
I4
F3.549999952316284
F0.41900492106858267
I8629
F8629.0
tp41
F0.7012400046355314
tp42
a((I22
I25
I43
F0.5
F0.4458346927794653
I6830
F6830.0
tp43
F0.6645680819912152
tp44
a((I23
I24
I14
F0.5
F0.44264599922421055
I6726
F6726.0
tp45
F0.6693428486470413
tp46
a((I-1
I-1
I-2
F-2.0
F0.4386085527861693
I6561
F6561.0
tp47
F0.6752019509221155
tp48
a((I-1
I-1
I-2
F-2.0
F0.49190082644628097
I165
F165.0
tp49
F0.43636363636363634
tp50
a((I26
I27
I3
F3.649999976158142
F0.4583949704142012
I104
F104.0
tp51
F0.3557692307692308
tp52
a((I-1
I-1
I-2
F-2.0
F0.27055150884495316
I31
F31.0
tp53
F0.16129032258064516
tp54
a((I-1
I-1
I-2
F-2.0
F0.49240007506098704
I73
F73.0
tp55
F0.4383561643835616
tp56
a((I29
I32
I4
F6.75
F0.2681645445048373
I1799
F1799.0
tp57
F0.8404669260700389
tp58
a((I30
I31
I36
F0.5
F0.3059388315365038
I1496
F1496.0
tp59
F0.8114973262032086
tp60
a((I-1
I-1
I-2
F-2.0
F0.28254124554102256
I1392
F1392.0
tp61
F0.8297413793103449
tp62
a((I-1
I-1
I-2
F-2.0
F0.490939349112426
I104
F104.0
tp63
F0.5673076923076923
tp64
a((I33
I34
I6
F4.950000047683716
F0.03245869141369584
I303
F303.0
tp65
F0.9834983498349835
tp66
a((I-1
I-1
I-2
F-2.0
F0.48
I5
F5.0
tp67
F0.6
tp68
a((I-1
I-1
I-2
F-2.0
F0.019931534615557855
I298
F298.0
tp69
F0.9899328859060402
tp70
a((I36
I51
I4
F2.25
F0.49948421525366515
I2304
F2304.0
tp71
F0.4839409722222222
tp72
a((I37
I44
I2
F1.550000011920929
F0.4935731605191247
I1473
F1473.0
tp73
F0.44331296673455534
tp74
a((I38
I41
I6
F23.949999809265137
F0.4965277777777778
I1392
F1392.0
tp75
F0.4583333333333333
tp76
a((I39
I40
I6
F21.25
F0.4709533201840894
I390
F390.0
tp77
F0.37948717948717947
tp78
a((I-1
I-1
I-2
F-2.0
F0.4951941560938101
I306
F306.0
tp79
F0.45098039215686275
tp80
a((I-1
I-1
I-2
F-2.0
F0.20975056689342408
I84
F84.0
tp81
F0.11904761904761904
tp82
a((I42
I43
I5
F0.5
F0.49975896510372464
I1002
F1002.0
tp83
F0.48902195608782434
tp84
a((I-1
I-1
I-2
F-2.0
F0.4994102642587491
I990
F990.0
tp85
F0.48282828282828283
tp86
a((I-1
I-1
I-2
F-2.0
F0.0
I12
F12.0
tp87
F1.0
tp88
a((I45
I48
I5
F0.5
F0.30178326474622774
I81
F81.0
tp89
F0.18518518518518517
tp90
a((I46
I47
I6
F15.350000381469727
F0.1284185493460166
I58
F58.0
tp91
F0.06896551724137931
tp92
a((I-1
I-1
I-2
F-2.0
F0.4444444444444444
I3
F3.0
tp93
F0.3333333333333333
tp94
a((I-1
I-1
I-2
F-2.0
F0.10314049586776863
I55
F55.0
tp95
F0.05454545454545454
tp96
a((I49
I50
I6
F23.800000190734863
F0.499054820415879
I23
F23.0
tp97
F0.4782608695652174
tp98
a((I-1
I-1
I-2
F-2.0
F0.2777777777777778
I12
F12.0
tp99
F0.16666666666666666
tp100
a((I-1
I-1
I-2
F-2.0
F0.2975206611570248
I11
F11.0
tp101
F0.8181818181818182
tp102
a((I52
I59
I5
F0.5
F0.4937377002176492
I831
F831.0
tp103
F0.555956678700361
tp104
a((I53
I56
I2
F0.8499999940395355
F0.49644871642735655
I795
F795.0
tp105
F0.5421383647798742
tp106
a((I54
I55
I2
F0.05000000074505806
F0.48991154442148765
I704
F704.0
tp107
F0.5710227272727273
tp108
a((I-1
I-1
I-2
F-2.0
F0.49956463316312816
I305
F305.0
tp109
F0.5147540983606558
tp110
a((I-1
I-1
I-2
F-2.0
F0.47399199753770394
I399
F399.0
tp111
F0.6140350877192983
tp112
a((I57
I58
I3
F0.3500000089406967
F0.434247071609709
I91
F91.0
tp113
F0.31868131868131866
tp114
a((I-1
I-1
I-2
F-2.0
F0.0
I3
F3.0
tp115
F1.0
tp116
a((I-1
I-1
I-2
F-2.0
F0.41632231404958675
I88
F88.0
tp117
F0.29545454545454547
tp118
a((I60
I63
I4
F2.600000023841858
F0.23919753086419748
I36
F36.0
tp119
F0.8611111111111112
tp120
a((I61
I62
I2
F1.25
F0.4897959183673469
I7
F7.0
tp121
F0.42857142857142855
tp122
a((I-1
I-1
I-2
F-2.0
F0.375
I4
F4.0
tp123
F0.75
tp124
a((I-1
I-1
I-2
F-2.0
F0.0
I3
F3.0
tp125
F0.0
tp126
a((I64
I65
I2
F2.5
F0.06658739595719376
I29
F29.0
tp127
F0.9655172413793104
tp128
a((I-1
I-1
I-2
F-2.0
F0.0
I27
F27.0
tp129
F1.0
tp130
a((I-1
I-1
I-2
F-2.0
F0.5
I2
F2.0
tp131
F0.5
tp132
a((I67
I98
I2
F1.949999988079071
F0.49839125837537024
I12041
F12041.0
tp133
F0.5283614317747696
tp134
a((I68
I83
I4
F2.950000047683716
F0.4748889042372909
I7916
F7916.0
tp135
F0.6120515411824153
tp136
a((I69
I76
I2
F0.3500000089406967
F0.49492496084839444
I5618
F5618.0
tp137
F0.5503737985048059
tp138
a((I70
I73
I2
F-0.8499999940395355
F0.4918341516193898
I626
F626.0
tp139
F0.43610223642172524
tp140
a((I71
I72
I2
F-3.350000023841858
F0.20414201183431957
I26
F26.0
tp141
F0.11538461538461539
tp142
a((I-1
I-1
I-2
F-2.0
F0.48
I5
F5.0
tp143
F0.6
tp144
a((I-1
I-1
I-2
F-2.0
F0.0
I21
F21.0
tp145
F0.0
tp146
a((I74
I75
I4
F1.050000011920929
F0.495
I600
F600.0
tp147
F0.45
tp148
a((I-1
I-1
I-2
F-2.0
F0.4614197530864198
I180
F180.0
tp149
F0.3611111111111111
tp150
a((I-1
I-1
I-2
F-2.0
F0.4997165532879818
I420
F420.0
tp151
F0.4880952380952381
tp152
a((I77
I80
I5
F0.5
F0.4916269075392423
I4992
F4992.0
tp153
F0.5647035256410257
tp154
a((I78
I79
I4
F2.649999976158142
F0.4869977545743951
I4130
F4130.0
tp155
F0.5806295399515738
tp156
a((I-1
I-1
I-2
F-2.0
F0.49009431561578376
I3666
F3666.0
tp157
F0.5703764320785597
tp158
a((I-1
I-1
I-2
F-2.0
F0.44774635850178357
I464
F464.0
tp159
F0.6616379310344828
tp160
a((I81
I82
I6
F16.550000190734863
F0.49973083693563236
I862
F862.0
tp161
F0.48839907192575405
tp162
a((I-1
I-1
I-2
F-2.0
F0.49441794232823066
I530
F530.0
tp163
F0.44716981132075473
tp164
a((I-1
I-1
I-2
F-2.0
F0.4941210625635071
I332
F332.0
tp165
F0.5542168674698795
tp166
a((I84
I91
I4
F3.950000047683716
F0.361833160253628
I2298
F2298.0
tp167
F0.7628372497824195
tp168
a((I85
I88
I2
F0.2500000074505806
F0.4233302960798484
I1236
F1236.0
tp169
F0.6957928802588996
tp170
a((I86
I87
I2
F-0.7000000029802322
F0.4987246199367411
I99
F99.0
tp171
F0.47474747474747475
tp172
a((I-1
I-1
I-2
F-2.0
F0.0
I6
F6.0
tp173
F0.0
tp174
a((I-1
I-1
I-2
F-2.0
F0.49994218984853744
I93
F93.0
tp175
F0.5053763440860215
tp176
a((I89
I90
I2
F1.050000011920929
F0.4075159599278757
I1137
F1137.0
tp177
F0.7150395778364116
tp178
a((I-1
I-1
I-2
F-2.0
F0.3677167340427707
I766
F766.0
tp179
F0.7571801566579635
tp180
a((I-1
I-1
I-2
F-2.0
F0.4672154372606999
I371
F371.0
tp181
F0.628032345013477
tp182
a((I92
I95
I4
F5.3500001430511475
F0.26762034465759454
I1062
F1062.0
tp183
F0.8408662900188324
tp184
a((I93
I94
I3
F0.45000000298023224
F0.3221301587581118
I674
F674.0
tp185
F0.798219584569733
tp186
a((I-1
I-1
I-2
F-2.0
F0.2777777777777778
I6
F6.0
tp187
F0.16666666666666666
tp188
a((I-1
I-1
I-2
F-2.0
F0.31529904263329633
I668
F668.0
tp189
F0.8038922155688623
tp190
a((I96
I97
I3
F0.7000000178813934
F0.15563556169624826
I388
F388.0
tp191
F0.9149484536082474
tp192
a((I-1
I-1
I-2
F-2.0
F0.48611111111111116
I12
F12.0
tp193
F0.5833333333333334
tp194
a((I-1
I-1
I-2
F-2.0
F0.13784517881394298
I376
F376.0
tp195
F0.925531914893617
tp196
a((I99
I114
I4
F3.450000047683716
F0.46502388246097337
I4125
F4125.0
tp197
F0.3677575757575758
tp198
a((I100
I107
I5
F5.5
F0.44642289107589905
I3562
F3562.0
tp199
F0.33632790567097137
tp200
a((I101
I104
I4
F2.549999952316284
F0.4655946767632355
I2882
F2882.0
tp201
F0.3688410825815406
tp202
a((I102
I103
I5
F2.5
F0.4540353971840463
I2345
F2345.0
tp203
F0.34840085287846484
tp204
a((I-1
I-1
I-2
F-2.0
F0.4708239291741436
I1511
F1511.0
tp205
F0.37921906022501656
tp206
a((I-1
I-1
I-2
F-2.0
F0.4139422275129536
I834
F834.0
tp207
F0.29256594724220625
tp208
a((I105
I106
I5
F1.5
F0.49648887363066074
I537
F537.0
tp209
F0.4581005586592179
tp210
a((I-1
I-1
I-2
F-2.0
F0.4934157484547165
I183
F183.0
tp211
F0.5573770491803278
tp212
a((I-1
I-1
I-2
F-2.0
F0.4826199367997702
I354
F354.0
tp213
F0.4067796610169492
tp214
a((I108
I111
I6
F18.449999809265137
F0.3182309688581315
I680
F680.0
tp215
F0.19852941176470587
tp216
a((I109
I110
I4
F2.450000047683716
F0.2829498551470342
I598
F598.0
tp217
F0.1705685618729097
tp218
a((I-1
I-1
I-2
F-2.0
F0.24807676977040816
I448
F448.0
tp219
F0.14508928571428573
tp220
a((I-1
I-1
I-2
F-2.0
F0.37164444444444444
I150
F150.0
tp221
F0.24666666666666667
tp222
a((I112
I113
I2
F6.1499998569488525
F0.4809637120761452
I82
F82.0
tp223
F0.4024390243902439
tp224
a((I-1
I-1
I-2
F-2.0
F0.42507804370447455
I62
F62.0
tp225
F0.3064516129032258
tp226
a((I-1
I-1
I-2
F-2.0
F0.42000000000000004
I20
F20.0
tp227
F0.7
tp228
a((I115
I122
I6
F20.550000190734863
F0.4911268925352321
I563
F563.0
tp229
F0.566607460035524
tp230
a((I116
I119
I3
F1.449999988079071
F0.49887811634349033
I380
F380.0
tp231
F0.4763157894736842
tp232
a((I117
I118
I4
F4.549999952316284
F0.39669421487603307
I44
F44.0
tp233
F0.2727272727272727
tp234
a((I-1
I-1
I-2
F-2.0
F0.45061224489795915
I35
F35.0
tp235
F0.34285714285714286
tp236
a((I-1
I-1
I-2
F-2.0
F0.0
I9
F9.0
tp237
F0.0
tp238
a((I120
I121
I4
F8.799999713897705
F0.49998228458049887
I336
F336.0
tp239
F0.5029761904761905
tp240
a((I-1
I-1
I-2
F-2.0
F0.49988451695753
I329
F329.0
tp241
F0.49240121580547114
tp242
a((I-1
I-1
I-2
F-2.0
F0.0
I7
F7.0
tp243
F1.0
tp244
a((I123
I126
I2
F4.049999952316284
F0.3708680462241333
I183
F183.0
tp245
F0.7540983606557377
tp246
a((I124
I125
I4
F4.25
F0.2975206611570248
I154
F154.0
tp247
F0.8181818181818182
tp248
a((I-1
I-1
I-2
F-2.0
F0.45827160493827157
I45
F45.0
tp249
F0.6444444444444445
tp250
a((I-1
I-1
I-2
F-2.0
F0.19594310243245516
I109
F109.0
tp251
F0.8899082568807339
tp252
a((I127
I128
I0
F11.5
F0.4851367419738407
I29
F29.0
tp253
F0.41379310344827586
tp254
a((I-1
I-1
I-2
F-2.0
F0.4526627218934911
I26
F26.0
tp255
F0.34615384615384615
tp256
a((I-1
I-1
I-2
F-2.0
F0.0
I3
F3.0
tp257
F1.0
tp258
a((I130
I193
I29
F0.5
F0.4994277246192558
I30061
F30061.0
tp259
F0.5169156049366288
tp260
a((I131
I162
I3
F6.549999952316284
F0.49627804393432995
I26148
F26148.0
tp261
F0.5431390546122075
tp262
a((I132
I147
I4
F2.950000047683716
F0.47322009264245846
I6287
F6287.0
tp263
F0.6157149673930332
tp264
a((I133
I140
I43
F0.5
F0.48956390937164884
I4423
F4423.0
tp265
F0.5722360388876329
tp266
a((I134
I137
I24
F0.5
F0.48461881639774107
I4145
F4145.0
tp267
F0.5876960193003619
tp268
a((I135
I136
I14
F0.5
F0.47392894785789574
I3556
F3556.0
tp269
F0.6141732283464567
tp270
a((I-1
I-1
I-2
F-2.0
F0.46566537233270433
I3320
F3320.0
tp271
F0.6310240963855421
tp272
a((I-1
I-1
I-2
F-2.0
F0.4698003447285263
I236
F236.0
tp273
F0.3771186440677966
tp274
a((I138
I139
I2
F2.25
F0.4895869664851652
I589
F589.0
tp275
F0.42784380305602715
tp276
a((I-1
I-1
I-2
F-2.0
F0.49997621878715814
I290
F290.0
tp277
F0.503448275862069
tp278
a((I-1
I-1
I-2
F-2.0
F0.4576682587443094
I299
F299.0
tp279
F0.35451505016722407
tp280
a((I141
I144
I6
F7.1499998569488525
F0.4498990735469178
I278
F278.0
tp281
F0.34172661870503596
tp282
a((I142
I143
I0
F5.5
F0.3289426842292631
I53
F53.0
tp283
F0.20754716981132076
tp284
a((I-1
I-1
I-2
F-2.0
F0.45368620037807184
I23
F23.0
tp285
F0.34782608695652173
tp286
a((I-1
I-1
I-2
F-2.0
F0.18000000000000005
I30
F30.0
tp287
F0.1
tp288
a((I145
I146
I4
F1.8499999642372131
F0.46791111111111117
I225
F225.0
tp289
F0.37333333333333335
tp290
a((I-1
I-1
I-2
F-2.0
F0.43246402220761193
I117
F117.0
tp291
F0.3162393162393162
tp292
a((I-1
I-1
I-2
F-2.0
F0.4915980795610425
I108
F108.0
tp293
F0.4351851851851852
tp294
a((I148
I155
I4
F4.75
F0.40417948387334446
I1864
F1864.0
tp295
F0.7188841201716738
tp296
a((I149
I152
I14
F0.5
F0.4297189351175238
I1491
F1491.0
tp297
F0.687458081824279
tp298
a((I150
I151
I6
F18.15000057220459
F0.42155443901736855
I1434
F1434.0
tp299
F0.6980474198047419
tp300
a((I-1
I-1
I-2
F-2.0
F0.44135001140495644
I1092
F1092.0
tp301
F0.6712454212454212
tp302
a((I-1
I-1
I-2
F-2.0
F0.33911288943606577
I342
F342.0
tp303
F0.783625730994152
tp304
a((I153
I154
I6
F5.75
F0.48753462603878117
I57
F57.0
tp305
F0.42105263157894735
tp306
a((I-1
I-1
I-2
F-2.0
F0.42000000000000004
I10
F10.0
tp307
F0.7
tp308
a((I-1
I-1
I-2
F-2.0
F0.46174739701222267
I47
F47.0
tp309
F0.3617021276595745
tp310
a((I156
I159
I2
F0.05000000074505806
F0.2626339584126961
I373
F373.0
tp311
F0.8445040214477212
tp312
a((I157
I158
I4
F5.200000047683716
F0.42000000000000004
I10
F10.0
tp313
F0.3
tp314
a((I-1
I-1
I-2
F-2.0
F0.0
I2
F2.0
tp315
F1.0
tp316
a((I-1
I-1
I-2
F-2.0
F0.21875
I8
F8.0
tp317
F0.125
tp318
a((I160
I161
I36
F0.5
F0.24151355781708894
I363
F363.0
tp319
F0.859504132231405
tp320
a((I-1
I-1
I-2
F-2.0
F0.23111111111111116
I360
F360.0
tp321
F0.8666666666666667
tp322
a((I-1
I-1
I-2
F-2.0
F0.0
I3
F3.0
tp323
F0.0
tp324
a((I163
I178
I6
F6.450000047683716
F0.49918673363025945
I19861
F19861.0
tp325
F0.5201651477770505
tp326
a((I164
I171
I6
F1.050000011920929
F0.4965610407643368
I4582
F4582.0
tp327
F0.45853339153208206
tp328
a((I165
I168
I3
F27.65000057220459
F0.4486043936833518
I524
F524.0
tp329
F0.33969465648854963
tp330
a((I166
I167
I26
F0.5
F0.46764389042782395
I456
F456.0
tp331
F0.37280701754385964
tp332
a((I-1
I-1
I-2
F-2.0
F0.4578563995837669
I434
F434.0
tp333
F0.3548387096774194
tp334
a((I-1
I-1
I-2
F-2.0
F0.39669421487603307
I22
F22.0
tp335
F0.7272727272727273
tp336
a((I169
I170
I26
F0.5
F0.2076124567474048
I68
F68.0
tp337
F0.11764705882352941
tp338
a((I-1
I-1
I-2
F-2.0
F0.1461325270849081
I63
F63.0
tp339
F0.07936507936507936
tp340
a((I-1
I-1
I-2
F-2.0
F0.48
I5
F5.0
tp341
F0.6
tp342
a((I172
I175
I4
F4.950000047683716
F0.4986353614336818
I4058
F4058.0
tp343
F0.47387875800887136
tp344
a((I173
I174
I5
F0.5
F0.4961614991911193
I3481
F3481.0
tp345
F0.45619074978454466
tp346
a((I-1
I-1
I-2
F-2.0
F0.4979820069204153
I425
F425.0
tp347
F0.5317647058823529
tp348
a((I-1
I-1
I-2
F-2.0
F0.4940988117102053
I3056
F3056.0
tp349
F0.4456806282722513
tp350
a((I176
I177
I3
F23.449999809265137
F0.48701074403251143
I577
F577.0
tp351
F0.5805892547660312
tp352
a((I-1
I-1
I-2
F-2.0
F0.47298207140658666
I456
F456.0
tp353
F0.6162280701754386
tp354
a((I-1
I-1
I-2
F-2.0
F0.4942285363021651
I121
F121.0
tp355
F0.4462809917355372
tp356
a((I179
I186
I24
F0.5
F0.4970126924412207
I15279
F15279.0
tp357
F0.5386478172655278
tp358
a((I180
I183
I4
F6.1499998569488525
F0.49558499195348316
I14324
F14324.0
tp359
F0.5469840826584753
tp360
a((I181
I182
I50
F0.5
F0.49706846160844753
I13099
F13099.0
tp361
F0.5382853652950607
tp362
a((I-1
I-1
I-2
F-2.0
F0.496715287944433
I13004
F13004.0
tp363
F0.5405259920024608
tp364
a((I-1
I-1
I-2
F-2.0
F0.3559002770083103
I95
F95.0
tp365
F0.23157894736842105
tp366
a((I184
I185
I3
F18.84999942779541
F0.4608
I1225
F1225.0
tp367
F0.64
tp368
a((I-1
I-1
I-2
F-2.0
F0.405114949500605
I567
F567.0
tp369
F0.7178130511463845
tp370
a((I-1
I-1
I-2
F-2.0
F0.4893570828059608
I658
F658.0
tp371
F0.5729483282674772
tp372
a((I187
I190
I2
F4.75
F0.48507442230202025
I955
F955.0
tp373
F0.41361256544502617
tp374
a((I188
I189
I4
F4.450000047683716
F0.49488103522407234
I761
F761.0
tp375
F0.44940867279894875
tp376
a((I-1
I-1
I-2
F-2.0
F0.4906411819822114
I709
F709.0
tp377
F0.4315937940761636
tp378
a((I-1
I-1
I-2
F-2.0
F0.42603550295857984
I52
F52.0
tp379
F0.6923076923076923
tp380
a((I191
I192
I2
F6.049999952316284
F0.39711977893506223
I194
F194.0
tp381
F0.27319587628865977
tp382
a((I-1
I-1
I-2
F-2.0
F0.3374086469503449
I121
F121.0
tp383
F0.21487603305785125
tp384
a((I-1
I-1
I-2
F-2.0
F0.46612872959279417
I73
F73.0
tp385
F0.3698630136986301
tp386
a((I194
I219
I2
F1.550000011920929
F0.4498705521295695
I3913
F3913.0
tp387
F0.3416815742397138
tp388
a((I195
I206
I3
F6.549999952316284
F0.49555239874274337
I1495
F1495.0
tp389
F0.4528428093645485
tp390
a((I196
I203
I4
F6.3500001430511475
F0.49994263929407456
I1027
F1027.0
tp391
F0.5053554040895814
tp392
a((I197
I200
I6
F19.34999942779541
F0.5
I1014
F1014.0
tp393
F0.5
tp394
a((I198
I199
I6
F18.65000057220459
F0.4984737950612008
I724
F724.0
tp395
F0.4723756906077348
tp396
a((I-1
I-1
I-2
F-2.0
F0.49934929588609245
I693
F693.0
tp397
F0.481962481962482
tp398
a((I-1
I-1
I-2
F-2.0
F0.38293444328824144
I31
F31.0
tp399
F0.25806451612903225
tp400
a((I201
I202
I0
F3.5
F0.49048751486325803
I290
F290.0
tp401
F0.5689655172413793
tp402
a((I-1
I-1
I-2
F-2.0
F0.4841975308641975
I90
F90.0
tp403
F0.4111111111111111
tp404
a((I-1
I-1
I-2
F-2.0
F0.4608
I200
F200.0
tp405
F0.64
tp406
a((I204
I205
I2
F0.15000000596046448
F0.14201183431952658
I13
F13.0
tp407
F0.9230769230769231
tp408
a((I-1
I-1
I-2
F-2.0
F0.0
I1
F1.0
tp409
F0.0
tp410
a((I-1
I-1
I-2
F-2.0
F0.0
I12
F12.0
tp411
F1.0
tp412
a((I207
I214
I6
F23.949999809265137
F0.44725692161589603
I468
F468.0
tp413
F0.33760683760683763
tp414
a((I208
I211
I6
F9.849999904632568
F0.42700916696333213
I424
F424.0
tp415
F0.3089622641509434
tp416
a((I209
I210
I4
F3.75
F0.30535466432902325
I117
F117.0
tp417
F0.18803418803418803
tp418
a((I-1
I-1
I-2
F-2.0
F0.38246097337006424
I66
F66.0
tp419
F0.25757575757575757
tp420
a((I-1
I-1
I-2
F-2.0
F0.17685505574778926
I51
F51.0
tp421
F0.09803921568627451
tp422
a((I212
I213
I6
F23.34999942779541
F0.45797833398762855
I307
F307.0
tp423
F0.3550488599348534
tp424
a((I-1
I-1
I-2
F-2.0
F0.46612872959279417
I292
F292.0
tp425
F0.3698630136986301
tp426
a((I-1
I-1
I-2
F-2.0
F0.12444444444444447
I15
F15.0
tp427
F0.06666666666666667
tp428
a((I215
I216
I4
F2.600000023841858
F0.47417355371900827
I44
F44.0
tp429
F0.6136363636363636
tp430
a((I-1
I-1
I-2
F-2.0
F0.0
I9
F9.0
tp431
F0.0
tp432
a((I217
I218
I3
F16.5
F0.3526530612244898
I35
F35.0
tp433
F0.7714285714285715
tp434
a((I-1
I-1
I-2
F-2.0
F0.14201183431952658
I26
F26.0
tp435
F0.9230769230769231
tp436
a((I-1
I-1
I-2
F-2.0
F0.4444444444444444
I9
F9.0
tp437
F0.3333333333333333
tp438
a((I220
I235
I5
F6.5
F0.3968991866214311
I2418
F2418.0
tp439
F0.2729528535980149
tp440
a((I221
I228
I6
F19.84999942779541
F0.4147462633821798
I2027
F2027.0
tp441
F0.2935372471632955
tp442
a((I222
I225
I0
F24.5
F0.39993074792243766
I1672
F1672.0
tp443
F0.27631578947368424
tp444
a((I223
I224
I5
F2.5
F0.398127798538383
I1666
F1666.0
tp445
F0.2743097238895558
tp446
a((I-1
I-1
I-2
F-2.0
F0.4212648022171832
I1008
F1008.0
tp447
F0.30158730158730157
tp448
a((I-1
I-1
I-2
F-2.0
F0.3569118910579171
I658
F658.0
tp449
F0.23252279635258358
tp450
a((I226
I227
I5
F2.5
F0.2777777777777778
I6
F6.0
tp451
F0.8333333333333334
tp452
a((I-1
I-1
I-2
F-2.0
F0.0
I1
F1.0
tp453
F0.0
tp454
a((I-1
I-1
I-2
F-2.0
F0.0
I5
F5.0
tp455
F1.0
tp456
a((I229
I232
I3
F6.25
F0.4685736956952985
I355
F355.0
tp457
F0.37464788732394366
tp458
a((I230
I231
I6
F23.050000190734863
F0.49144030046292253
I214
F214.0
tp459
F0.43457943925233644
tp460
a((I-1
I-1
I-2
F-2.0
F0.49744897959183676
I196
F196.0
tp461
F0.4642857142857143
tp462
a((I-1
I-1
I-2
F-2.0
F0.19753086419753085
I18
F18.0
tp463
F0.1111111111111111
tp464
a((I233
I234
I4
F4.450000047683716
F0.4064181882199085
I141
F141.0
tp465
F0.28368794326241137
tp466
a((I-1
I-1
I-2
F-2.0
F0.3536683687180865
I122
F122.0
tp467
F0.22950819672131148
tp468
a((I-1
I-1
I-2
F-2.0
F0.46537396121883656
I19
F19.0
tp469
F0.631578947368421
tp470
a((I236
I243
I4
F4.450000047683716
F0.2772090711075935
I391
F391.0
tp471
F0.16624040920716113
tp472
a((I237
I240
I4
F0.15000000223517418
F0.24837460734896633
I351
F351.0
tp473
F0.1452991452991453
tp474
a((I238
I239
I6
F6.700000286102295
F0.49382716049382713
I9
F9.0
tp475
F0.4444444444444444
tp476
a((I-1
I-1
I-2
F-2.0
F0.0
I2
F2.0
tp477
F1.0
tp478
a((I-1
I-1
I-2
F-2.0
F0.40816326530612246
I7
F7.0
tp479
F0.2857142857142857
tp480
a((I241
I242
I6
F5.299999952316284
F0.23708149516090427
I342
F342.0
tp481
F0.13742690058479531
tp482
a((I-1
I-1
I-2
F-2.0
F0.0
I43
F43.0
tp483
F0.0
tp484
a((I-1
I-1
I-2
F-2.0
F0.26496347915571417
I299
F299.0
tp485
F0.15719063545150502
tp486
a((I244
I247
I4
F6.799999952316284
F0.45499999999999996
I40
F40.0
tp487
F0.35
tp488
a((I245
I246
I3
F17.34999990463257
F0.4953173777315296
I31
F31.0
tp489
F0.45161290322580644
tp490
a((I-1
I-1
I-2
F-2.0
F0.4526627218934911
I26
F26.0
tp491
F0.34615384615384615
tp492
a((I-1
I-1
I-2
F-2.0
F0.0
I5
F5.0
tp493
F1.0
tp494
a((I-1
I-1
I-2
F-2.0
F0.0
I9
F9.0
tp495
F0.0
tp496
a((I249
I368
I4
F3.649999976158142
F0.44492030689080786
I67568
F67568.0
tp497
F0.33404866208856265
tp498
a((I250
I309
I5
F0.5
F0.3790994499060151
I19293
F19293.0
tp499
F0.2541336235940497
tp500
a((I251
I278
I6
F3.049999952316284
F0.429526469707454
I6699
F6699.0
tp501
F0.3122854157336916
tp502
a((I252
I267
I1
F1.5
F0.32687834079465683
I622
F622.0
tp503
F0.2057877813504823
tp504
a((I253
I260
I3
F17.550000190734863
F0.43238293444328824
I155
F155.0
tp505
F0.3161290322580645
tp506
a((I254
I257
I4
F1.8499999642372131
F0.4905805459438678
I51
F51.0
tp507
F0.43137254901960786
tp508
a((I255
I256
I3
F2.850000023841858
F0.21875
I16
F16.0
tp509
F0.125
tp510
a((I-1
I-1
I-2
F-2.0
F0.5
I2
F2.0
tp511
F0.5
tp512
a((I-1
I-1
I-2
F-2.0
F0.13265306122448983
I14
F14.0
tp513
F0.07142857142857142
tp514
a((I258
I259
I3
F8.599999904632568
F0.4897959183673469
I35
F35.0
tp515
F0.5714285714285714
tp516
a((I-1
I-1
I-2
F-2.0
F0.2975206611570248
I11
F11.0
tp517
F0.8181818181818182
tp518
a((I-1
I-1
I-2
F-2.0
F0.4965277777777778
I24
F24.0
tp519
F0.4583333333333333
tp520
a((I261
I264
I3
F25.850000381469727
F0.384430473372781
I104
F104.0
tp521
F0.25961538461538464
tp522
a((I262
I263
I2
F0.8499999940395355
F0.3076430059285371
I79
F79.0
tp523
F0.189873417721519
tp524
a((I-1
I-1
I-2
F-2.0
F0.41135734072022156
I38
F38.0
tp525
F0.2894736842105263
tp526
a((I-1
I-1
I-2
F-2.0
F0.17608566329565734
I41
F41.0
tp527
F0.0975609756097561
tp528
a((I265
I266
I3
F27.600000381469727
F0.4992
I25
F25.0
tp529
F0.48
tp530
a((I-1
I-1
I-2
F-2.0
F0.375
I12
F12.0
tp531
F0.75
tp532
a((I-1
I-1
I-2
F-2.0
F0.3550295857988166
I13
F13.0
tp533
F0.23076923076923078
tp534
a((I268
I275
I2
F4.599999904632568
F0.28109624969622493
I467
F467.0
tp535
F0.16916488222698073
tp536
a((I269
I272
I3
F7.200000047683716
F0.2744053477881596
I463
F463.0
tp537
F0.16414686825053995
tp538
a((I270
I271
I4
F2.75
F0.42401608733122664
I59
F59.0
tp539
F0.3050847457627119
tp540
a((I-1
I-1
I-2
F-2.0
F0.34818825489379424
I49
F49.0
tp541
F0.22448979591836735
tp542
a((I-1
I-1
I-2
F-2.0
F0.42000000000000004
I10
F10.0
tp543
F0.7
tp544
a((I273
I274
I4
F0.949999988079071
F0.2459072639937261
I404
F404.0
tp545
F0.14356435643564355
tp546
a((I-1
I-1
I-2
F-2.0
F0.4296875
I16
F16.0
tp547
F0.3125
tp548
a((I-1
I-1
I-2
F-2.0
F0.2358778828780954
I388
F388.0
tp549
F0.13659793814432988
tp550
a((I276
I277
I4
F3.25
F0.375
I4
F4.0
tp551
F0.75
tp552
a((I-1
I-1
I-2
F-2.0
F0.0
I3
F3.0
tp553
F1.0
tp554
a((I-1
I-1
I-2
F-2.0
F0.0
I1
F1.0
tp555
F0.0
tp556
a((I279
I294
I4
F2.350000023841858
F0.4374734649503388
I6077
F6077.0
tp557
F0.32318578245844987
tp558
a((I280
I287
I59
F0.5
F0.4017383438312844
I1958
F1958.0
tp559
F0.2783452502553626
tp560
a((I281
I284
I2
F1.949999988079071
F0.38917631998427815
I1712
F1712.0
tp561
F0.26460280373831774
tp562
a((I282
I283
I1
F2.5
F0.4004460246662751
I1506
F1506.0
tp563
F0.27689243027888444
tp564
a((I-1
I-1
I-2
F-2.0
F0.36735222368174136
I730
F730.0
tp565
F0.24246575342465754
tp566
a((I-1
I-1
I-2
F-2.0
F0.4272505048357955
I776
F776.0
tp567
F0.30927835051546393
tp568
a((I285
I286
I61
F0.5
F0.28843434819492886
I206
F206.0
tp569
F0.17475728155339806
tp570
a((I-1
I-1
I-2
F-2.0
F0.2375129979561834
I167
F167.0
tp571
F0.1377245508982036
tp572
a((I-1
I-1
I-2
F-2.0
F0.4444444444444444
I39
F39.0
tp573
F0.3333333333333333
tp574
a((I288
I291
I1
F3.5
F0.46823980434926304
I246
F246.0
tp575
F0.37398373983739835
tp576
a((I289
I290
I6
F22.300000190734863
F0.49046121913250507
I181
F181.0
tp577
F0.430939226519337
tp578
a((I-1
I-1
I-2
F-2.0
F0.4935433884297521
I176
F176.0
tp579
F0.4431818181818182
tp580
a((I-1
I-1
I-2
F-2.0
F0.0
I5
F5.0
tp581
F0.0
tp582
a((I292
I293
I4
F2.25
F0.3379881656804734
I65
F65.0
tp583
F0.2153846153846154
tp584
a((I-1
I-1
I-2
F-2.0
F0.28152829646653266
I59
F59.0
tp585
F0.1694915254237288
tp586
a((I-1
I-1
I-2
F-2.0
F0.4444444444444444
I6
F6.0
tp587
F0.6666666666666666
tp588
a((I295
I302
I6
F11.849999904632568
F0.4516401795314804
I4119
F4119.0
tp589
F0.3445010924981792
tp590
a((I296
I299
I3
F24.84999942779541
F0.438103426264811
I1981
F1981.0
tp591
F0.32407874810701665
tp592
a((I297
I298
I6
F9.050000190734863
F0.44509764929690276
I1696
F1696.0
tp593
F0.33431603773584906
tp594
a((I-1
I-1
I-2
F-2.0
F0.459225439981394
I977
F977.0
tp595
F0.3572159672466735
tp596
a((I-1
I-1
I-2
F-2.0
F0.42253864411435293
I719
F719.0
tp597
F0.3031988873435327
tp598
a((I300
I301
I6
F3.950000047683716
F0.38781163434903043
I285
F285.0
tp599
F0.2631578947368421
tp600
a((I-1
I-1
I-2
F-2.0
F0.499054820415879
I23
F23.0
tp601
F0.5217391304347826
tp602
a((I-1
I-1
I-2
F-2.0
F0.3652759163218927
I262
F262.0
tp603
F0.24045801526717558
tp604
a((I303
I306
I2
F1.550000011920929
F0.4626938616211089
I2138
F2138.0
tp605
F0.36342376052385406
tp606
a((I304
I305
I3
F27.050000190734863
F0.4678934239741235
I1910
F1910.0
tp607
F0.37329842931937174
tp608
a((I-1
I-1
I-2
F-2.0
F0.4691768402735612
I1897
F1897.0
tp609
F0.37585661570901424
tp610
a((I-1
I-1
I-2
F-2.0
F0.0
I13
F13.0
tp611
F0.0
tp612
a((I307
I308
I4
F3.350000023841858
F0.4038165589412127
I228
F228.0
tp613
F0.2807017543859649
tp614
a((I-1
I-1
I-2
F-2.0
F0.4291349480968858
I170
F170.0
tp615
F0.31176470588235294
tp616
a((I-1
I-1
I-2
F-2.0
F0.307372175980975
I58
F58.0
tp617
F0.1896551724137931
tp618
a((I310
I339
I3
F12.849999904632568
F0.3467652079610495
I12594
F12594.0
tp619
F0.22320152453549308
tp620
a((I311
I324
I3
F5.25
F0.29982464446428414
I6660
F6660.0
tp621
F0.18363363363363364
tp622
a((I312
I319
I60
F0.5
F0.24064041865854313
I1444
F1444.0
tp623
F0.13988919667590027
tp624
a((I313
I316
I58
F0.5
F0.23302758429408554
I1426
F1426.0
tp625
F0.13464235624123422
tp626
a((I314
I315
I5
F2.5
F0.2300067040528685
I1418
F1418.0
tp627
F0.1325811001410437
tp628
a((I-1
I-1
I-2
F-2.0
F0.2643501164131463
I823
F823.0
tp629
F0.15674362089914945
tp630
a((I-1
I-1
I-2
F-2.0
F0.17865404985523625
I595
F595.0
tp631
F0.09915966386554621
tp632
a((I317
I318
I0
F16.0
F0.5
I8
F8.0
tp633
F0.5
tp634
a((I-1
I-1
I-2
F-2.0
F0.31999999999999995
I5
F5.0
tp635
F0.2
tp636
a((I-1
I-1
I-2
F-2.0
F0.0
I3
F3.0
tp637
F1.0
tp638
a((I320
I321
I3
F1.5
F0.49382716049382713
I18
F18.0
tp639
F0.5555555555555556
tp640
a((I-1
I-1
I-2
F-2.0
F0.0
I4
F4.0
tp641
F1.0
tp642
a((I322
I323
I2
F1.7999999523162842
F0.4897959183673469
I14
F14.0
tp643
F0.42857142857142855
tp644
a((I-1
I-1
I-2
F-2.0
F0.0
I2
F2.0
tp645
F1.0
tp646
a((I-1
I-1
I-2
F-2.0
F0.4444444444444444
I12
F12.0
tp647
F0.3333333333333333
tp648
a((I325
I332
I2
F2.75
F0.31485640866705555
I5216
F5216.0
tp649
F0.19574386503067484
tp650
a((I326
I329
I4
F2.850000023841858
F0.350420093752966
I1757
F1757.0
tp651
F0.22652248150256118
tp652
a((I327
I328
I60
F0.5
F0.3224968734029887
I1341
F1341.0
tp653
F0.20208799403430275
tp654
a((I-1
I-1
I-2
F-2.0
F0.3201798650899438
I1334
F1334.0
tp655
F0.20014992503748125
tp656
a((I-1
I-1
I-2
F-2.0
F0.4897959183673469
I7
F7.0
tp657
F0.5714285714285714
tp658
a((I330
I331
I6
F12.650000095367432
F0.4241748335798816
I416
F416.0
tp659
F0.30528846153846156
tp660
a((I-1
I-1
I-2
F-2.0
F0.3795699949619422
I271
F271.0
tp661
F0.25461254612546125
tp662
a((I-1
I-1
I-2
F-2.0
F0.48
I145
F145.0
tp663
F0.4
tp664
a((I333
I336
I6
F22.600000381469727
F0.29534059453820793
I3459
F3459.0
tp665
F0.18010985834056087
tp666
a((I334
I335
I0
F5.5
F0.2935547263470153
I3430
F3430.0
tp667
F0.17871720116618076
tp668
a((I-1
I-1
I-2
F-2.0
F0.2713401416091542
I1495
F1495.0
tp669
F0.16187290969899665
tp670
a((I-1
I-1
I-2
F-2.0
F0.3099407754608764
I1935
F1935.0
tp671
F0.1917312661498708
tp672
a((I337
I338
I3
F8.349999904632568
F0.4518430439952438
I29
F29.0
tp673
F0.3448275862068966
tp674
a((I-1
I-1
I-2
F-2.0
F0.48
I15
F15.0
tp675
F0.6
tp676
a((I-1
I-1
I-2
F-2.0
F0.13265306122448983
I14
F14.0
tp677
F0.07142857142857142
tp678
a((I340
I353
I6
F4.1499998569488525
F0.39199012982829096
I5934
F5934.0
tp679
F0.2676103808560836
tp680
a((I341
I346
I6
F1.75
F0.2705849208353206
I1308
F1308.0
tp681
F0.16131498470948014
tp682
a((I342
I345
I2
F24.34999942779541
F0.17104938271604941
I540
F540.0
tp683
F0.09444444444444444
tp684
a((I343
I344
I3
F30.65000057220459
F0.16831829712826263
I539
F539.0
tp685
F0.09276437847866419
tp686
a((I-1
I-1
I-2
F-2.0
F0.19120634236481437
I467
F467.0
tp687
F0.10706638115631692
tp688
a((I-1
I-1
I-2
F-2.0
F0.0
I72
F72.0
tp689
F0.0
tp690
a((I-1
I-1
I-2
F-2.0
F0.0
I1
F1.0
tp691
F1.0
tp692
a((I347
I350
I4
F3.450000047683716
F0.32986111111111116
I768
F768.0
tp693
F0.20833333333333334
tp694
a((I348
I349
I3
F13.050000190734863
F0.3057370950551992
I669
F669.0
tp695
F0.18834080717488788
tp696
a((I-1
I-1
I-2
F-2.0
F0.31999999999999995
I5
F5.0
tp697
F0.8
tp698
a((I-1
I-1
I-2
F-2.0
F0.29995282334155904
I664
F664.0
tp699
F0.18373493975903615
tp700
a((I351
I352
I5
F3.5
F0.45097439036832976
I99
F99.0
tp701
F0.3434343434343434
tp702
a((I-1
I-1
I-2
F-2.0
F0.31568877551020413
I56
F56.0
tp703
F0.19642857142857142
tp704
a((I-1
I-1
I-2
F-2.0
F0.4975662520281233
I43
F43.0
tp705
F0.5348837209302325
tp706
a((I354
I361
I6
F17.050000190734863
F0.4181213947221003
I4626
F4626.0
tp707
F0.29766536964980544
tp708
a((I355
I358
I6
F11.25
F0.4231377359741303
I3938
F3938.0
tp709
F0.30396140172676483
tp710
a((I356
I357
I5
F21.5
F0.4078653844290421
I2057
F2057.0
tp711
F0.28536703937773455
tp712
a((I-1
I-1
I-2
F-2.0
F0.40654105797586704
I2047
F2047.0
tp713
F0.28382999511480217
tp714
a((I-1
I-1
I-2
F-2.0
F0.48
I10
F10.0
tp715
F0.6
tp716
a((I359
I360
I5
F1.5
F0.4382559188233661
I1881
F1881.0
tp717
F0.3242955874534822
tp718
a((I-1
I-1
I-2
F-2.0
F0.46934692990373594
I521
F521.0
tp719
F0.3761996161228407
tp720
a((I-1
I-1
I-2
F-2.0
F0.4234904844290658
I1360
F1360.0
tp721
F0.3044117647058823
tp722
a((I362
I365
I4
F2.75
F0.38635749053542456
I688
F688.0
tp723
F0.2616279069767442
tp724
a((I363
I364
I0
F15.5
F0.34094419367584206
I289
F289.0
tp725
F0.2179930795847751
tp726
a((I-1
I-1
I-2
F-2.0
F0.366091840905994
I257
F257.0
tp727
F0.24124513618677043
tp728
a((I-1
I-1
I-2
F-2.0
F0.060546875
I32
F32.0
tp729
F0.03125
tp730
a((I366
I367
I6
F45.5
F0.41449488382610666
I399
F399.0
tp731
F0.2932330827067669
tp732
a((I-1
I-1
I-2
F-2.0
F0.4040147730895951
I388
F388.0
tp733
F0.2809278350515464
tp734
a((I-1
I-1
I-2
F-2.0
F0.39669421487603307
I11
F11.0
tp735
F0.7272727272727273
tp736
a((I369
I430
I5
F1.5
F0.4640807826513955
I48275
F48275.0
tp737
F0.36598653547384774
tp738
a((I370
I399
I3
F24.34999942779541
F0.47182158486272674
I38678
F38678.0
tp739
F0.3813020321629867
tp740
a((I371
I386
I4
F5.950000047683716
F0.48043499945776946
I26338
F26338.0
tp741
F0.4010934771053231
tp742
a((I372
I379
I6
F2.049999952316284
F0.4712776671393226
I14699
F14699.0
tp743
F0.3801619157765834
tp744
a((I373
I376
I6
F0.550000011920929
F0.3843134113122897
I474
F474.0
tp745
F0.25949367088607594
tp746
a((I374
I375
I3
F2.450000047683716
F0.24489795918367352
I70
F70.0
tp747
F0.14285714285714285
tp748
a((I-1
I-1
I-2
F-2.0
F0.0
I1
F1.0
tp749
F1.0
tp750
a((I-1
I-1
I-2
F-2.0
F0.22684310018903586
I69
F69.0
tp751
F0.13043478260869565
tp752
a((I377
I378
I60
F0.5
F0.4029384374080972
I404
F404.0
tp753
F0.27970297029702973
tp754
a((I-1
I-1
I-2
F-2.0
F0.38293444328824144
I341
F341.0
tp755
F0.25806451612903225
tp756
a((I-1
I-1
I-2
F-2.0
F0.47871000251952633
I63
F63.0
tp757
F0.3968253968253968
tp758
a((I380
I383
I3
F19.25
F0.4731727416211341
I14225
F14225.0
tp759
F0.384182776801406
tp760
a((I381
I382
I2
F1.1500000357627869
F0.4810753353807933
I5577
F5577.0
tp761
F0.4027254796485566
tp762
a((I-1
I-1
I-2
F-2.0
F0.4890949958335161
I3020
F3020.0
tp763
F0.42615894039735097
tp764
a((I-1
I-1
I-2
F-2.0
F0.46877443792672935
I2557
F2557.0
tp765
F0.3750488854125929
tp766
a((I384
I385
I6
F43.5
F0.46734699236924726
I8648
F8648.0
tp767
F0.37222479185938945
tp768
a((I-1
I-1
I-2
F-2.0
F0.4678797004970895
I8605
F8605.0
tp769
F0.37327135386403254
tp770
a((I-1
I-1
I-2
F-2.0
F0.2725797728501893
I43
F43.0
tp771
F0.16279069767441862
tp772
a((I387
I392
I6
F1.75
F0.489495658481786
I11639
F11639.0
tp773
F0.427528138156199
tp774
a((I388
I391
I56
F0.5
F0.39540892975181785
I258
F258.0
tp775
F0.2713178294573643
tp776
a((I389
I390
I0
F8.5
F0.4234404536862004
I230
F230.0
tp777
F0.30434782608695654
tp778
a((I-1
I-1
I-2
F-2.0
F0.45695435476352686
I167
F167.0
tp779
F0.3532934131736527
tp780
a((I-1
I-1
I-2
F-2.0
F0.28823381204333587
I63
F63.0
tp781
F0.1746031746031746
tp782
a((I-1
I-1
I-2
F-2.0
F0.0
I28
F28.0
tp783
F0.0
tp784
a((I393
I396
I3
F19.34999942779541
F0.4904971243830474
I11381
F11381.0
tp785
F0.4310693260697654
tp786
a((I394
I395
I2
F1.3499999642372131
F0.4981749131944444
I2880
F2880.0
tp787
F0.46979166666666666
tp788
a((I-1
I-1
I-2
F-2.0
F0.4994982495543254
I2336
F2336.0
tp789
F0.4841609589041096
tp790
a((I-1
I-1
I-2
F-2.0
F0.48310445501730104
I544
F544.0
tp791
F0.40808823529411764
tp792
a((I397
I398
I2
F0.05000000074505806
F0.48653586717954433
I8501
F8501.0
tp793
F0.4179508293141983
tp794
a((I-1
I-1
I-2
F-2.0
F0.332409972299169
I95
F95.0
tp795
F0.21052631578947367
tp796
a((I-1
I-1
I-2
F-2.0
F0.48729423467336275
I8406
F8406.0
tp797
F0.4202950273614085
tp798
a((I400
I415
I3
F29.050000190734863
F0.4481966119325749
I12340
F12340.0
tp799
F0.33905996758508916
tp800
a((I401
I408
I4
F7.049999952316284
F0.45196752417510677
I12028
F12028.0
tp801
F0.34502826737612236
tp802
a((I402
I405
I6
F1.050000011920929
F0.44515963494505795
I8672
F8672.0
tp803
F0.33440959409594095
tp804
a((I403
I404
I2
F1.449999988079071
F0.32312358494596094
I153
F153.0
tp805
F0.20261437908496732
tp806
a((I-1
I-1
I-2
F-2.0
F0.28134755463059313
I124
F124.0
tp807
F0.1693548387096774
tp808
a((I-1
I-1
I-2
F-2.0
F0.4518430439952438
I29
F29.0
tp809
F0.3448275862068966
tp810
a((I406
I407
I2
F0.15000000223517418
F0.44671625446697993
I8519
F8519.0
tp811
F0.3367766169738232
tp812
a((I-1
I-1
I-2
F-2.0
F0.25631897472410115
I53
F53.0
tp813
F0.1509433962264151
tp814
a((I-1
I-1
I-2
F-2.0
F0.44747310973720766
I8466
F8466.0
tp815
F0.3379399952752185
tp816
a((I409
I412
I3
F27.25
F0.4674707815223583
I3356
F3356.0
tp817
F0.37246722288438616
tp818
a((I410
I411
I4
F16.84999942779541
F0.4701900711355339
I3260
F3260.0
tp819
F0.37791411042944784
tp820
a((I-1
I-1
I-2
F-2.0
F0.4677958562901745
I3168
F3168.0
tp821
F0.3731060606060606
tp822
a((I-1
I-1
I-2
F-2.0
F0.49621928166351603
I92
F92.0
tp823
F0.5434782608695652
tp824
a((I413
I414
I4
F7.3500001430511475
F0.3046875
I96
F96.0
tp825
F0.1875
tp826
a((I-1
I-1
I-2
F-2.0
F0.46875
I16
F16.0
tp827
F0.375
tp828
a((I-1
I-1
I-2
F-2.0
F0.255
I80
F80.0
tp829
F0.15
tp830
a((I416
I423
I4
F15.849999904632568
F0.19419789612097305
I312
F312.0
tp831
F0.10897435897435898
tp832
a((I417
I420
I61
F0.5
F0.15657252767873897
I292
F292.0
tp833
F0.08561643835616438
tp834
a((I418
I419
I3
F47.05000114440918
F0.14650207732187115
I289
F289.0
tp835
F0.07958477508650519
tp836
a((I-1
I-1
I-2
F-2.0
F0.1411072530864198
I288
F288.0
tp837
F0.0763888888888889
tp838
a((I-1
I-1
I-2
F-2.0
F0.0
I1
F1.0
tp839
F1.0
tp840
a((I421
I422
I3
F34.75
F0.4444444444444444
I3
F3.0
tp841
F0.6666666666666666
tp842
a((I-1
I-1
I-2
F-2.0
F0.0
I2
F2.0
tp843
F1.0
tp844
a((I-1
I-1
I-2
F-2.0
F0.0
I1
F1.0
tp845
F0.0
tp846
a((I424
I427
I2
F0.9500000178813934
F0.495
I20
F20.0
tp847
F0.45
tp848
a((I425
I426
I58
F0.5
F0.375
I12
F12.0
tp849
F0.25
tp850
a((I-1
I-1
I-2
F-2.0
F0.2975206611570248
I11
F11.0
tp851
F0.18181818181818182
tp852
a((I-1
I-1
I-2
F-2.0
F0.0
I1
F1.0
tp853
F1.0
tp854
a((I428
I429
I58
F0.5
F0.375
I8
F8.0
tp855
F0.75
tp856
a((I-1
I-1
I-2
F-2.0
F0.0
I4
F4.0
tp857
F1.0
tp858
a((I-1
I-1
I-2
F-2.0
F0.5
I4
F4.0
tp859
F0.5
tp860
a((I431
I454
I6
F2.75
F0.42337307377052424
I9597
F9597.0
tp861
F0.30426174846306137
tp862
a((I432
I445
I3
F26.15000057220459
F0.280167246677952
I742
F742.0
tp863
F0.16846361185983827
tp864
a((I433
I440
I57
F0.5
F0.3231381714885124
I533
F533.0
tp865
F0.2026266416510319
tp866
a((I434
I437
I2
F7.450000047683716
F0.28883619810172445
I377
F377.0
tp867
F0.17506631299734748
tp868
a((I435
I436
I2
F7.049999952316284
F0.32084407855584207
I284
F284.0
tp869
F0.2007042253521127
tp870
a((I-1
I-1
I-2
F-2.0
F0.308390022675737
I273
F273.0
tp871
F0.19047619047619047
tp872
a((I-1
I-1
I-2
F-2.0
F0.49586776859504134
I11
F11.0
tp873
F0.45454545454545453
tp874
a((I438
I439
I1
F5.5
F0.17481789802289283
I93
F93.0
tp875
F0.0967741935483871
tp876
a((I-1
I-1
I-2
F-2.0
F0.1587901701323251
I92
F92.0
tp877
F0.08695652173913043
tp878
a((I-1
I-1
I-2
F-2.0
F0.0
I1
F1.0
tp879
F1.0
tp880
a((I441
I442
I3
F9.599999904632568
F0.39349112426035504
I156
F156.0
tp881
F0.2692307692307692
tp882
a((I-1
I-1
I-2
F-2.0
F0.0
I15
F15.0
tp883
F0.0
tp884
a((I443
I444
I4
F4.8500001430511475
F0.41828881846989585
I141
F141.0
tp885
F0.2978723404255319
tp886
a((I-1
I-1
I-2
F-2.0
F0.375
I96
F96.0
tp887
F0.25
tp888
a((I-1
I-1
I-2
F-2.0
F0.48
I45
F45.0
tp889
F0.4
tp890
a((I446
I453
I59
F0.5
F0.14944712804194038
I209
F209.0
tp891
F0.08133971291866028
tp892
a((I447
I450
I6
F1.3499999642372131
F0.14201183431952658
I208
F208.0
tp893
F0.07692307692307693
tp894
a((I448
I449
I3
F27.15000057220459
F0.05750342935528119
I135
F135.0
tp895
F0.02962962962962963
tp896
a((I-1
I-1
I-2
F-2.0
F0.31999999999999995
I10
F10.0
tp897
F0.2
tp898
a((I-1
I-1
I-2
F-2.0
F0.03148799999999996
I125
F125.0
tp899
F0.016
tp900
a((I451
I452
I4
F3.75
F0.2747232126102458
I73
F73.0
tp901
F0.1643835616438356
tp902
a((I-1
I-1
I-2
F-2.0
F0.48
I5
F5.0
tp903
F0.6
tp904
a((I-1
I-1
I-2
F-2.0
F0.2296712802768166
I68
F68.0
tp905
F0.1323529411764706
tp906
a((I-1
I-1
I-2
F-2.0
F0.0
I1
F1.0
tp907
F1.0
tp908
a((I455
I468
I4
F5.3500001430511475
F0.4320234303785724
I8855
F8855.0
tp909
F0.3156408808582722
tp910
a((I456
I461
I6
F6.1499998569488525
F0.41960313108833724
I5853
F5853.0
tp911
F0.29950452759268753
tp912
a((I457
I460
I3
F30.84999942779541
F0.3652198755229058
I990
F990.0
tp913
F0.2404040404040404
tp914
a((I458
I459
I3
F21.75
F0.36281179138321995
I987
F987.0
tp915
F0.23809523809523808
tp916
a((I-1
I-1
I-2
F-2.0
F0.38720800856697124
I579
F579.0
tp917
F0.26252158894645944
tp918
a((I-1
I-1
I-2
F-2.0
F0.3240940984236832
I408
F408.0
tp919
F0.2034313725490196
tp920
a((I-1
I-1
I-2
F-2.0
F0.0
I3
F3.0
tp921
F1.0
tp922
a((I462
I465
I3
F11.75
F0.4289627083760681
I4863
F4863.0
tp923
F0.31153608883405304
tp924
a((I463
I464
I60
F0.5
F0.352292836592602
I517
F517.0
tp925
F0.22823984526112184
tp926
a((I-1
I-1
I-2
F-2.0
F0.3444686562934425
I511
F511.0
tp927
F0.22113502935420742
tp928
a((I-1
I-1
I-2
F-2.0
F0.2777777777777778
I6
F6.0
tp929
F0.8333333333333334
tp930
a((I466
I467
I3
F18.25
F0.43623622888018854
I4346
F4346.0
tp931
F0.32144500690289923
tp932
a((I-1
I-1
I-2
F-2.0
F0.4581584048680247
I1362
F1362.0
tp933
F0.355359765051395
tp934
a((I-1
I-1
I-2
F-2.0
F0.42470095199419244
I2984
F2984.0
tp935
F0.3059651474530831
tp936
a((I469
I476
I3
F26.050000190734863
F0.4532443616314418
I3002
F3002.0
tp937
F0.34710193204530315
tp938
a((I470
I473
I2
F15.050000190734863
F0.4581024930747922
I2812
F2812.0
tp939
F0.35526315789473684
tp940
a((I471
I472
I6
F29.5
F0.46044599570579237
I2727
F2727.0
tp941
F0.35936927026035936
tp942
a((I-1
I-1
I-2
F-2.0
F0.45934911948683455
I2711
F2711.0
tp943
F0.3574326816672814
tp944
a((I-1
I-1
I-2
F-2.0
F0.4296875
I16
F16.0
tp945
F0.6875
tp946
a((I474
I475
I6
F3.149999976158142
F0.34712802768166084
I85
F85.0
tp947
F0.2235294117647059
tp948
a((I-1
I-1
I-2
F-2.0
F0.4897959183673469
I7
F7.0
tp949
F0.5714285714285714
tp950
a((I-1
I-1
I-2
F-2.0
F0.31065088757396453
I78
F78.0
tp951
F0.19230769230769232
tp952
a((I477
I480
I6
F16.600000381469727
F0.35019390581717447
I190
F190.0
tp953
F0.22631578947368422
tp954
a((I478
I479
I0
F4.5
F0.40716504726022873
I123
F123.0
tp955
F0.2845528455284553
tp956
a((I-1
I-1
I-2
F-2.0
F0.4994054696789536
I29
F29.0
tp957
F0.4827586206896552
tp958
a((I-1
I-1
I-2
F-2.0
F0.3469895880488909
I94
F94.0
tp959
F0.22340425531914893
tp960
a((I481
I482
I6
F47.5
F0.21029182445979056
I67
F67.0
tp961
F0.11940298507462686
tp962
a((I-1
I-1
I-2
F-2.0
F0.189623507805326
I66
F66.0
tp963
F0.10606060606060606
tp964
a((I-1
I-1
I-2
F-2.0
F0.0
I1
F1.0
tp965
F1.0
tp966
a.